; Function Attrs: mustprogress uwtable
define internal i32 @"_ZNSt17_Function_handlerIFN3sat7literalEP4exprbEZN3smt10theory_seq4initEvE3$_1E9_M_invokeERKSt9_Any_dataOS3_Ob"(ptr nocapture noundef nonnull readonly align 8 dereferenceable(16) %__functor, ptr nocapture noundef nonnull readonly align 8 dereferenceable(8) %__args, ptr nocapture noundef nonnull readonly align 1 dereferenceable(1) %__args1) #3 align 2 {
entry:
  %call.val = load ptr, ptr %__functor, align 8
  %__args.val = load ptr, ptr %__args, align 8
  %__args1.val = load i8, ptr %__args1, align 1
  %0 = and i8 %__args1.val, 1
  %tobool.i.i = icmp ne i8 %0, 0
  %call.i.i.i = tail call i32 @_ZN3smt10theory_seq11mk_eq_emptyEP4exprb(ptr noundef nonnull align 8 dereferenceable(4328) %call.val, ptr noundef %__args.val, i1 noundef zeroext %tobool.i.i)
  ret i32 %call.i.i.i
}